target datalayout = "e-m:e-p270:32:32-p271:32:32-p272:64:64-i64:64-i128:128-f80:128-n8:16:32:64-S128"
target triple = "x86_64-pc-linux-gnu"

%struct.mp_cur = type { ptr, i64, i32 }

; Function Attrs: nounwind uwtable
define dso_local void @mp_decode_to_lua_hash(ptr noundef %0, ptr noundef %1, i64 noundef %2) #0 {
  %4 = alloca ptr, align 8
  %5 = alloca ptr, align 8
  %6 = alloca i64, align 8
  store ptr %0, ptr %4, align 8, !tbaa !17
  store ptr %1, ptr %5, align 8, !tbaa !25
  store i64 %2, ptr %6, align 8, !tbaa !8
  %7 = load ptr, ptr %4, align 8, !tbaa !17
  call void @lua_createtable(ptr noundef %7, i32 noundef 0, i32 noundef 0)
  br label %8

8:                                                ; preds = %28, %3
  %9 = load i64, ptr %6, align 8, !tbaa !8
  %10 = add i64 %9, -1
  store i64 %10, ptr %6, align 8, !tbaa !8
  %11 = icmp ne i64 %9, 0
  br i1 %11, label %12, label %30

12:                                               ; preds = %8
  %13 = load ptr, ptr %4, align 8, !tbaa !17
  %14 = load ptr, ptr %5, align 8, !tbaa !25
  call void @mp_decode_to_lua_type(ptr noundef %13, ptr noundef %14)
  %15 = load ptr, ptr %5, align 8, !tbaa !25
  %16 = getelementptr inbounds nuw %struct.mp_cur, ptr %15, i32 0, i32 2
  %17 = load i32, ptr %16, align 8, !tbaa !30
  %18 = icmp ne i32 %17, 0
  br i1 %18, label %19, label %20

19:                                               ; preds = %12
  br label %30

20:                                               ; preds = %12
  %21 = load ptr, ptr %4, align 8, !tbaa !17
  %22 = load ptr, ptr %5, align 8, !tbaa !25
  call void @mp_decode_to_lua_type(ptr noundef %21, ptr noundef %22)
  %23 = load ptr, ptr %5, align 8, !tbaa !25
  %24 = getelementptr inbounds nuw %struct.mp_cur, ptr %23, i32 0, i32 2
  %25 = load i32, ptr %24, align 8, !tbaa !30
  %26 = icmp ne i32 %25, 0
  br i1 %26, label %27, label %28

27:                                               ; preds = %20
  br label %30

28:                                               ; preds = %20
  %29 = load ptr, ptr %4, align 8, !tbaa !17
  call void @lua_settable(ptr noundef %29, i32 noundef -3)
  br label %8, !llvm.loop !41

30:                                               ; preds = %19, %27, %8
  ret void
}