; Function Attrs: nounwind uwtable
define dso_local void @mp_decode_to_lua_hash(ptr noundef %0, ptr noundef %1, i64 noundef %2) local_unnamed_addr #2 {
  tail call void @lua_createtable(ptr noundef %0, i32 noundef 0, i32 noundef 0) #10
  %.not10 = icmp eq i64 %2, 0
  br i1 %.not10, label %._crit_edge, label %.lr.ph

.lr.ph:                                           ; preds = %3
  %4 = getelementptr inbounds nuw i8, ptr %1, i64 16
  br label %5

5:                                                ; preds = %.lr.ph, %10
  %.in = phi i64 [ %2, %.lr.ph ], [ %6, %10 ]
  %6 = add i64 %.in, -1
  tail call void @mp_decode_to_lua_type(ptr noundef %0, ptr noundef %1)
  %7 = load i32, ptr %4, align 8, !tbaa !21
  %.not8 = icmp eq i32 %7, 0
  br i1 %.not8, label %8, label %._crit_edge

8:                                                ; preds = %5
  tail call void @mp_decode_to_lua_type(ptr noundef %0, ptr noundef nonnull %1)
  %9 = load i32, ptr %4, align 8, !tbaa !21
  %.not9 = icmp eq i32 %9, 0
  br i1 %.not9, label %10, label %._crit_edge

10:                                               ; preds = %8
  tail call void @lua_settable(ptr noundef %0, i32 noundef -3) #10
  %.not = icmp eq i64 %6, 0
  br i1 %.not, label %._crit_edge, label %5, !llvm.loop !33

._crit_edge:                                      ; preds = %10, %5, %8, %3
  ret void
}